target datalayout = "e-m:e-p270:32:32-p271:32:32-p272:64:64-i64:64-i128:128-f80:128-n8:16:32:64-S128"
target triple = "x86_64-pc-linux-gnu"

%struct.ossl_param_st = type { ptr, i32, ptr, i64, i64 }

@.str.20 = private unnamed_addr constant [16 x i8] c"encoded-pub-key\00", align 1

; Function Attrs: nounwind uwtable
define internal i32 @dh_set_params(ptr noundef %0, ptr noundef %1) #0 {
  %3 = alloca i32, align 4
  %4 = alloca ptr, align 8
  %5 = alloca ptr, align 8
  %6 = alloca ptr, align 8
  %7 = alloca ptr, align 8
  %8 = alloca i32, align 4
  store ptr %0, ptr %4, align 8, !tbaa !3
  store ptr %1, ptr %5, align 8, !tbaa !11
  call void @llvm.lifetime.start.p0(i64 8, ptr %6) #8
  %9 = load ptr, ptr %4, align 8, !tbaa !3
  store ptr %9, ptr %6, align 8, !tbaa !7
  call void @llvm.lifetime.start.p0(i64 8, ptr %7) #8
  %10 = load ptr, ptr %5, align 8, !tbaa !11
  %11 = call ptr @OSSL_PARAM_locate_const(ptr noundef %10, ptr noundef @.str.20)
  store ptr %11, ptr %7, align 8, !tbaa !11
  %12 = load ptr, ptr %7, align 8, !tbaa !11
  %13 = icmp ne ptr %12, null
  br i1 %13, label %14, label %30

14:                                               ; preds = %2
  %15 = load ptr, ptr %7, align 8, !tbaa !11
  %16 = getelementptr inbounds nuw %struct.ossl_param_st, ptr %15, i32 0, i32 1
  %17 = load i32, ptr %16, align 8, !tbaa !47
  %18 = icmp ne i32 %17, 5
  br i1 %18, label %29, label %19

19:                                               ; preds = %14
  %20 = load ptr, ptr %6, align 8, !tbaa !7
  %21 = load ptr, ptr %7, align 8, !tbaa !11
  %22 = getelementptr inbounds nuw %struct.ossl_param_st, ptr %21, i32 0, i32 2
  %23 = load ptr, ptr %22, align 8, !tbaa !51
  %24 = load ptr, ptr %7, align 8, !tbaa !11
  %25 = getelementptr inbounds nuw %struct.ossl_param_st, ptr %24, i32 0, i32 3
  %26 = load i64, ptr %25, align 8, !tbaa !49
  %27 = call i32 @ossl_dh_buf2key(ptr noundef %20, ptr noundef %23, i64 noundef %26)
  %28 = icmp ne i32 %27, 0
  br i1 %28, label %30, label %29

29:                                               ; preds = %19, %14
  store i32 0, ptr %3, align 4
  store i32 1, ptr %8, align 4
  br label %31

30:                                               ; preds = %19, %2
  store i32 1, ptr %3, align 4
  store i32 1, ptr %8, align 4
  br label %31

31:                                               ; preds = %30, %29
  call void @llvm.lifetime.end.p0(i64 8, ptr %7) #8
  call void @llvm.lifetime.end.p0(i64 8, ptr %6) #8
  %32 = load i32, ptr %3, align 4
  ret i32 %32
}