; Function Attrs: nounwind uwtable
define internal range(i32 0, 2) i32 @dh_set_params(ptr noundef %0, ptr noundef %1) #0 {
  %3 = tail call ptr @OSSL_PARAM_locate_const(ptr noundef %1, ptr noundef nonnull @.str.20) #8
  %.not = icmp eq ptr %3, null
  br i1 %.not, label %13, label %4

4:                                                ; preds = %2
  %5 = getelementptr inbounds nuw i8, ptr %3, i64 8
  %6 = load i32, ptr %5, align 8, !tbaa !38
  %.not8 = icmp eq i32 %6, 5
  br i1 %.not8, label %7, label %14

7:                                                ; preds = %4
  %8 = getelementptr inbounds nuw i8, ptr %3, i64 16
  %9 = load ptr, ptr %8, align 8, !tbaa !42
  %10 = getelementptr inbounds nuw i8, ptr %3, i64 24
  %11 = load i64, ptr %10, align 8, !tbaa !40
  %12 = tail call i32 @ossl_dh_buf2key(ptr noundef %0, ptr noundef %9, i64 noundef %11) #8
  %.not9 = icmp eq i32 %12, 0
  br i1 %.not9, label %14, label %13

13:                                               ; preds = %7, %2
  br label %14

14:                                               ; preds = %4, %7, %13
  %.0 = phi i32 [ 1, %13 ], [ 0, %7 ], [ 0, %4 ]
  ret i32 %.0
}